target datalayout = "e-m:e-p270:32:32-p271:32:32-p272:64:64-i64:64-i128:128-f80:128-n8:16:32:64-S128"
target triple = "x86_64-pc-linux-gnu"

%struct.nghttp2_map = type { ptr, ptr, i64, i32, i32 }
%struct.nghttp2_map_bucket = type { i32, i32, ptr }

; Function Attrs: nounwind uwtable
define dso_local i32 @nghttp2_map_each(ptr noundef %0, ptr noundef %1, ptr noundef %2) #0 {
  %4 = alloca i32, align 4
  %5 = alloca ptr, align 8
  %6 = alloca ptr, align 8
  %7 = alloca ptr, align 8
  %8 = alloca i32, align 4
  %9 = alloca i32, align 4
  %10 = alloca ptr, align 8
  store ptr %0, ptr %5, align 8
  store ptr %1, ptr %6, align 8
  store ptr %2, ptr %7, align 8
  store i32 0, ptr %9, align 4
  br label %11

11:                                               ; preds = %41, %3
  %12 = load i32, ptr %9, align 4
  %13 = load ptr, ptr %5, align 8
  %14 = getelementptr inbounds %struct.nghttp2_map, ptr %13, i32 0, i32 3
  %15 = load i32, ptr %14, align 8
  %16 = icmp ult i32 %12, %15
  br i1 %16, label %17, label %44

17:                                               ; preds = %11
  %18 = load ptr, ptr %5, align 8
  %19 = getelementptr inbounds %struct.nghttp2_map, ptr %18, i32 0, i32 0
  %20 = load ptr, ptr %19, align 8
  %21 = load i32, ptr %9, align 4
  %22 = zext i32 %21 to i64
  %23 = getelementptr inbounds %struct.nghttp2_map_bucket, ptr %20, i64 %22
  store ptr %23, ptr %10, align 8
  %24 = load ptr, ptr %10, align 8
  %25 = getelementptr inbounds %struct.nghttp2_map_bucket, ptr %24, i32 0, i32 2
  %26 = load ptr, ptr %25, align 8
  %27 = icmp eq ptr %26, null
  br i1 %27, label %28, label %29

28:                                               ; preds = %17
  br label %41

29:                                               ; preds = %17
  %30 = load ptr, ptr %6, align 8
  %31 = load ptr, ptr %10, align 8
  %32 = getelementptr inbounds %struct.nghttp2_map_bucket, ptr %31, i32 0, i32 2
  %33 = load ptr, ptr %32, align 8
  %34 = load ptr, ptr %7, align 8
  %35 = call i32 %30(ptr noundef %33, ptr noundef %34)
  store i32 %35, ptr %8, align 4
  %36 = load i32, ptr %8, align 4
  %37 = icmp ne i32 %36, 0
  br i1 %37, label %38, label %40

38:                                               ; preds = %29
  %39 = load i32, ptr %8, align 4
  store i32 %39, ptr %4, align 4
  br label %45

40:                                               ; preds = %29
  br label %41

41:                                               ; preds = %40, %28
  %42 = load i32, ptr %9, align 4
  %43 = add i32 %42, 1
  store i32 %43, ptr %9, align 4
  br label %11, !llvm.loop !7

44:                                               ; preds = %11
  store i32 0, ptr %4, align 4
  br label %45

45:                                               ; preds = %44, %38
  %46 = load i32, ptr %4, align 4
  ret i32 %46
}