; Function Attrs: nounwind uwtable
define dso_local i32 @nghttp2_map_each(ptr noundef readonly captures(none) %0, ptr noundef readonly captures(none) %1, ptr noundef %2) local_unnamed_addr #0 {
  %4 = getelementptr inbounds nuw i8, ptr %0, i64 24
  %5 = load i32, ptr %4, align 8
  %.not17 = icmp eq i32 %5, 0
  br i1 %.not17, label %._crit_edge, label %.lr.ph

.lr.ph:                                           ; preds = %3, %13
  %6 = phi i32 [ %14, %13 ], [ %5, %3 ]
  %indvars.iv = phi i64 [ %indvars.iv.next, %13 ], [ 0, %3 ]
  %7 = load ptr, ptr %0, align 8
  %8 = getelementptr inbounds nuw %struct.nghttp2_map_bucket, ptr %7, i64 %indvars.iv, i32 2
  %9 = load ptr, ptr %8, align 8
  %10 = icmp eq ptr %9, null
  br i1 %10, label %13, label %11

11:                                               ; preds = %.lr.ph
  %12 = tail call i32 %1(ptr noundef nonnull %9, ptr noundef %2) #10
  %.not = icmp eq i32 %12, 0
  br i1 %.not, label %._crit_edge19, label %._crit_edge

._crit_edge19:                                    ; preds = %11
  %.pre = load i32, ptr %4, align 8
  br label %13

13:                                               ; preds = %._crit_edge19, %.lr.ph
  %14 = phi i32 [ %.pre, %._crit_edge19 ], [ %6, %.lr.ph ]
  %indvars.iv.next = add nuw nsw i64 %indvars.iv, 1
  %15 = zext i32 %14 to i64
  %16 = icmp samesign ult i64 %indvars.iv.next, %15
  br i1 %16, label %.lr.ph, label %._crit_edge, !llvm.loop !7

._crit_edge:                                      ; preds = %11, %13, %3
  %.0 = phi i32 [ 0, %3 ], [ 0, %13 ], [ %12, %11 ]
  ret i32 %.0
}